; Function Attrs: mustprogress uwtable
define hidden void @_ZN19OpenColorIO_v2_5dev12MatrixOpData20CreateDiagonalMatrixEd(ptr dead_on_unwind noalias nonnull writable sret(%"class.std::shared_ptr.14") align 8 initializes((0, 8)) %0, double noundef %1) local_unnamed_addr #3 align 2 personality ptr @__gxx_personality_v0 {
  %3 = alloca %"class.std::allocator.24", align 1
  tail call void @llvm.experimental.noalias.scope.decl(metadata !117)
  call void @llvm.lifetime.start.p0(i64 1, ptr nonnull %3) #34, !noalias !117
  store ptr null, ptr %0, align 8, !tbaa !95, !alias.scope !117
  %4 = getelementptr inbounds nuw i8, ptr %0, i64 8
  call void @_ZNSt14__shared_countILN9__gnu_cxx12_Lock_policyE2EEC2IN19OpenColorIO_v2_5dev12MatrixOpDataESaIvEJEEERPT_St20_Sp_alloc_shared_tagIT0_EDpOT1_(ptr noundef nonnull align 8 dereferenceable(8) %4, ptr noundef nonnull align 8 dereferenceable(16) %0, ptr nonnull %3)
  call void @llvm.lifetime.end.p0(i64 1, ptr nonnull %3) #34, !noalias !117
  %5 = load ptr, ptr %0, align 8, !tbaa !95
  %6 = load ptr, ptr %5, align 8, !tbaa !15
  %7 = getelementptr inbounds nuw i8, ptr %6, i64 16
  %8 = load ptr, ptr %7, align 8
  invoke void %8(ptr noundef nonnull align 8 dereferenceable(260) %5)
          to label %11 unwind label %9

9:                                                ; preds = %2
  %10 = landingpad { ptr, i32 }
          cleanup
  call void @_ZNSt12__shared_ptrIN19OpenColorIO_v2_5dev12MatrixOpDataELN9__gnu_cxx12_Lock_policyE2EED2Ev(ptr noundef nonnull align 8 dereferenceable(16) %0) #34
  resume { ptr, i32 } %10

11:                                               ; preds = %2
  %12 = load ptr, ptr %0, align 8, !tbaa !95
  %13 = getelementptr inbounds nuw i8, ptr %12, i64 192
  %14 = load ptr, ptr %13, align 8, !tbaa !9
  store double %1, ptr %14, align 8, !tbaa !7
  %15 = getelementptr inbounds nuw i8, ptr %14, i64 40
  store double %1, ptr %15, align 8, !tbaa !7
  %16 = getelementptr inbounds nuw i8, ptr %14, i64 80
  store double %1, ptr %16, align 8, !tbaa !7
  %17 = getelementptr inbounds nuw i8, ptr %14, i64 120
  store double %1, ptr %17, align 8, !tbaa !7
  ret void
}